target datalayout = "e-m:e-p270:32:32-p271:32:32-p272:64:64-i64:64-i128:128-f80:128-n8:16:32:64-S128"
target triple = "x86_64-pc-linux-gnu"

%"class.google::protobuf::io::CodedInputStream" = type { ptr, ptr, ptr, i32, i32, i32, i8, i8, i32, i32, i32, i32, i32, ptr, ptr }

; Function Attrs: inlinehint mustprogress nounwind uwtable
define linkonce_odr hidden void @_ZN6google8protobuf2io16CodedInputStream7AdvanceEi(ptr noundef nonnull align 8 dereferenceable(80) %0, i32 noundef %1) #5 comdat align 2 {
  %3 = alloca ptr, align 8
  %4 = alloca i32, align 4
  store ptr %0, ptr %3, align 8, !tbaa !3
  store i32 %1, ptr %4, align 4, !tbaa !8
  %5 = load ptr, ptr %3, align 8
  %6 = load i32, ptr %4, align 4, !tbaa !8
  %7 = getelementptr inbounds nuw %"class.google::protobuf::io::CodedInputStream", ptr %5, i32 0, i32 0
  %8 = load ptr, ptr %7, align 8, !tbaa !12
  %9 = sext i32 %6 to i64
  %10 = getelementptr inbounds i8, ptr %8, i64 %9
  store ptr %10, ptr %7, align 8, !tbaa !12
  ret void
}

; Function Attrs: alwaysinline mustprogress uwtable
define linkonce_odr hidden noundef i32 @_ZN6google8protobuf2io16CodedInputStream16ReadTagNoLastTagEv(ptr noundef nonnull align 8 dereferenceable(80) %0) #9 comdat align 2 {
  %2 = alloca i32, align 4
  %3 = alloca ptr, align 8
  %4 = alloca i32, align 4
  %5 = alloca i32, align 4
  store ptr %0, ptr %3, align 8, !tbaa !3
  %6 = load ptr, ptr %3, align 8
  call void @llvm.lifetime.start.p0(i64 4, ptr %4) #3
  store i32 0, ptr %4, align 4, !tbaa !8
  %7 = getelementptr inbounds nuw %"class.google::protobuf::io::CodedInputStream", ptr %6, i32 0, i32 0
  %8 = load ptr, ptr %7, align 8, !tbaa !12
  %9 = getelementptr inbounds nuw %"class.google::protobuf::io::CodedInputStream", ptr %6, i32 0, i32 1
  %10 = load ptr, ptr %9, align 8, !tbaa !19
  %11 = icmp ult ptr %8, %10
  %12 = zext i1 %11 to i64
  %13 = call i64 @llvm.expect.i64(i64 %12, i64 1)
  %14 = icmp ne i64 %13, 0
  br i1 %14, label %15, label %25

15:                                               ; preds = %1
  %16 = getelementptr inbounds nuw %"class.google::protobuf::io::CodedInputStream", ptr %6, i32 0, i32 0
  %17 = load ptr, ptr %16, align 8, !tbaa !12
  %18 = load i8, ptr %17, align 1, !tbaa !20
  %19 = zext i8 %18 to i32
  store i32 %19, ptr %4, align 4, !tbaa !8
  %20 = load i32, ptr %4, align 4, !tbaa !8
  %21 = icmp ult i32 %20, 128
  br i1 %21, label %22, label %24

22:                                               ; preds = %15
  call void @_ZN6google8protobuf2io16CodedInputStream7AdvanceEi(ptr noundef nonnull align 8 dereferenceable(80) %6, i32 noundef 1)
  %23 = load i32, ptr %4, align 4, !tbaa !8
  store i32 %23, ptr %2, align 4
  store i32 1, ptr %5, align 4
  br label %29

24:                                               ; preds = %15
  br label %25

25:                                               ; preds = %24, %1
  %26 = load i32, ptr %4, align 4, !tbaa !8
  %27 = call noundef i32 @_ZN6google8protobuf2io16CodedInputStream15ReadTagFallbackEj(ptr noundef nonnull align 8 dereferenceable(80) %6, i32 noundef %26)
  store i32 %27, ptr %4, align 4, !tbaa !8
  %28 = load i32, ptr %4, align 4, !tbaa !8
  store i32 %28, ptr %2, align 4
  store i32 1, ptr %5, align 4
  br label %29

29:                                               ; preds = %25, %22
  call void @llvm.lifetime.end.p0(i64 4, ptr %4) #3
  %30 = load i32, ptr %2, align 4
  ret i32 %30
}

; Function Attrs: inlinehint mustprogress nounwind uwtable
define linkonce_odr hidden noundef i32 @_ZN6google8protobuf8internal14WireFormatLite14GetTagWireTypeEj(i32 noundef %0) #5 comdat align 2 {
  %2 = alloca i32, align 4
  store i32 %0, ptr %2, align 4, !tbaa !8
  %3 = load i32, ptr %2, align 4, !tbaa !8
  %4 = and i32 %3, 7
  ret i32 %4
}

; Function Attrs: alwaysinline mustprogress uwtable
define linkonce_odr hidden noundef i32 @_ZN6google8protobuf2io16CodedInputStream7ReadTagEv(ptr noundef nonnull align 8 dereferenceable(80) %0) #9 comdat align 2 {
  %2 = alloca ptr, align 8
  store ptr %0, ptr %2, align 8, !tbaa !3
  %3 = load ptr, ptr %2, align 8
  %4 = call noundef i32 @_ZN6google8protobuf2io16CodedInputStream16ReadTagNoLastTagEv(ptr noundef nonnull align 8 dereferenceable(80) %3)
  %5 = getelementptr inbounds nuw %"class.google::protobuf::io::CodedInputStream", ptr %3, i32 0, i32 5
  store i32 %4, ptr %5, align 8, !tbaa !36
  ret i32 %4
}

; Function Attrs: mustprogress uwtable
define hidden noundef zeroext i1 @_ZN6google8protobuf8internal14WireFormatLite11SkipMessageEPNS0_2io16CodedInputStreamE(ptr noundef %0) #4 align 2 {
  %2 = alloca i1, align 1
  %3 = alloca ptr, align 8
  %4 = alloca i32, align 4
  %5 = alloca i32, align 4
  %6 = alloca i32, align 4
  store ptr %0, ptr %3, align 8, !tbaa !3
  br label %7

7:                                                ; preds = %1, %28
  call void @llvm.lifetime.start.p0(i64 4, ptr %4) #3
  %8 = load ptr, ptr %3, align 8, !tbaa !3
  %9 = call noundef i32 @_ZN6google8protobuf2io16CodedInputStream7ReadTagEv(ptr noundef nonnull align 8 dereferenceable(80) %8)
  store i32 %9, ptr %4, align 4, !tbaa !8
  %10 = load i32, ptr %4, align 4, !tbaa !8
  %11 = icmp eq i32 %10, 0
  br i1 %11, label %12, label %13

12:                                               ; preds = %7
  store i1 true, ptr %2, align 1
  store i32 1, ptr %5, align 4
  br label %26

13:                                               ; preds = %7
  call void @llvm.lifetime.start.p0(i64 4, ptr %6) #3
  %14 = load i32, ptr %4, align 4, !tbaa !8
  %15 = call noundef i32 @_ZN6google8protobuf8internal14WireFormatLite14GetTagWireTypeEj(i32 noundef %14)
  store i32 %15, ptr %6, align 4, !tbaa !31
  %16 = load i32, ptr %6, align 4, !tbaa !31
  %17 = icmp eq i32 %16, 4
  br i1 %17, label %18, label %19

18:                                               ; preds = %13
  store i1 true, ptr %2, align 1
  store i32 1, ptr %5, align 4
  br label %25

19:                                               ; preds = %13
  %20 = load ptr, ptr %3, align 8, !tbaa !3
  %21 = load i32, ptr %4, align 4, !tbaa !8
  %22 = call noundef zeroext i1 @_ZN6google8protobuf8internal14WireFormatLite9SkipFieldEPNS0_2io16CodedInputStreamEj(ptr noundef %20, i32 noundef %21)
  br i1 %22, label %24, label %23

23:                                               ; preds = %19
  store i1 false, ptr %2, align 1
  store i32 1, ptr %5, align 4
  br label %25

24:                                               ; preds = %19
  store i32 0, ptr %5, align 4
  br label %25

25:                                               ; preds = %24, %23, %18
  call void @llvm.lifetime.end.p0(i64 4, ptr %6) #3
  br label %26

26:                                               ; preds = %25, %12
  call void @llvm.lifetime.end.p0(i64 4, ptr %4) #3
  %27 = load i32, ptr %5, align 4
  switch i32 %27, label %31 [
    i32 0, label %28
    i32 1, label %29
  ]

28:                                               ; preds = %26
  br label %7, !llvm.loop !33

29:                                               ; preds = %26
  %30 = load i1, ptr %2, align 1
  ret i1 %30

31:                                               ; preds = %26
  unreachable
}

; Function Attrs: mustprogress uwtable
define hidden noundef zeroext i1 @_ZN6google8protobuf8internal12FieldSkipper11SkipMessageEPNS0_2io16CodedInputStreamE(ptr noundef nonnull align 8 dereferenceable(8) %0, ptr noundef %1) unnamed_addr #4 align 2 {
  %3 = alloca ptr, align 8
  %4 = alloca ptr, align 8
  store ptr %0, ptr %3, align 8, !tbaa !46
  store ptr %1, ptr %4, align 8, !tbaa !3
  %5 = load ptr, ptr %4, align 8, !tbaa !3
  %6 = call noundef zeroext i1 @_ZN6google8protobuf8internal14WireFormatLite11SkipMessageEPNS0_2io16CodedInputStreamE(ptr noundef %5)
  ret i1 %6
}